target datalayout = "e-m:e-p270:32:32-p271:32:32-p272:64:64-i64:64-i128:128-f80:128-n8:16:32:64-S128"
target triple = "x86_64-pc-linux-gnu"

%struct.node_record = type { ptr, ptr, i16, i64, i64, ptr, ptr, ptr, i16, ptr, i16, i16, i32, i32, i64, ptr, i16, i16, ptr, ptr, ptr, ptr, ptr, i64, i64, ptr, ptr, ptr, ptr, i32, ptr, ptr, i64, i64, i32, ptr, i64, ptr, i32, i16, ptr, ptr, i32, ptr, i32, i8, ptr, i32, i16, i16, ptr, i16, i64, i16, i64, ptr, i64, i32, i16, i64, i16, ptr, i16, i64, ptr, i64, i16, i32, i16, ptr, ptr, ptr, i16, i32, i16, i16, i32, ptr, i16, i32 }
%struct.job_record = type { i32, ptr, ptr, ptr, ptr, i16, i32, i32, i32, ptr, i32, ptr, ptr, i16, ptr, double, i64, ptr, ptr, ptr, ptr, ptr, ptr, i32, ptr, i32, i64, i64, i32, i32, ptr, i16, i64, i64, i8, i32, ptr, ptr, ptr, ptr, ptr, ptr, ptr, ptr, i32, ptr, ptr, i32, ptr, i32, ptr, i32, ptr, i32, ptr, ptr, ptr, ptr, ptr, ptr, i32, i16, i64, ptr, ptr, ptr, ptr, %struct.acct_policy_limit_set_t, i16, ptr, ptr, ptr, ptr, ptr, i32, ptr, ptr, ptr, ptr, ptr, i32, i32, ptr, ptr, ptr, i16, ptr, ptr, i8, ptr, ptr, i64, i64, i8, i32, i32, i8, i32, ptr, i32, i64, i32, ptr, ptr, ptr, i8, i16, i64, i32, ptr, ptr, ptr, ptr, ptr, i16, i32, ptr, ptr, ptr, ptr, i32, ptr, i32, i16, i64, ptr, i32, i32, ptr, i64, ptr, ptr, i64, i32, i32, i64, i32, i32, ptr, ptr, ptr, ptr, ptr, ptr, ptr, ptr, ptr, ptr, ptr, ptr, i32, ptr, i16, i16, i16, i16, ptr, i32, i32, i8, i64 }
%struct.acct_policy_limit_set_t = type { i16, i16, ptr }
%struct.job_details_t = type { i32, ptr, i64, ptr, i32, ptr, i64, ptr, i16, i16, ptr, i16, i32, i32, i32, i16, ptr, i16, ptr, ptr, ptr, i16, ptr, ptr, ptr, ptr, i32, ptr, ptr, ptr, ptr, ptr, i32, i32, i32, ptr, ptr, i16, i32, i32, i32, i32, i32, i32, i16, i16, i32, i8, i8, i32, i32, i64, i64, i16, i32, ptr, ptr, i8, ptr, i32, ptr, i64, ptr, ptr, i16, i16, i16, i8, ptr, ptr, ptr, ptr, ptr, ptr, i64, i32, i32, i8, ptr, i16, ptr, ptr, i16 }
%struct.part_record = type { i32, ptr, ptr, ptr, ptr, ptr, ptr, i32, ptr, ptr, ptr, ptr, ptr, i32, i64, i32, ptr, ptr, ptr, ptr, ptr, i32, i32, ptr, i32, i32, i64, i32, i32, i16, i32, i32, i32, i32, ptr, ptr, ptr, ptr, ptr, double, i16, i16, i16, i16, ptr, ptr, i16, i16, i32, i16, i32, i32, i32, i32, i16, ptr, ptr, ptr }

@idle_node_bitmap = dso_local global ptr null, align 8
@share_node_bitmap = dso_local global ptr null, align 8
@last_node_update = external global i64, align 8

; Function Attrs: nounwind uwtable
define dso_local void @make_node_alloc(ptr noundef %0, ptr noundef %1) #0 {
  %3 = alloca ptr, align 8
  %4 = alloca ptr, align 8
  %5 = alloca i32, align 4
  store ptr %0, ptr %3, align 8
  store ptr %1, ptr %4, align 8
  call void @llvm.lifetime.start.p0(i64 4, ptr %5) #10
  %6 = load ptr, ptr %3, align 8
  %7 = getelementptr inbounds nuw %struct.node_record, ptr %6, i32 0, i32 62
  %8 = load i16, ptr %7, align 8
  %9 = add i16 %8, 1
  store i16 %9, ptr %7, align 8
  %10 = load ptr, ptr @idle_node_bitmap, align 8
  %11 = load ptr, ptr %3, align 8
  %12 = getelementptr inbounds nuw %struct.node_record, ptr %11, i32 0, i32 29
  %13 = load i32, ptr %12, align 8
  %14 = zext i32 %13 to i64
  call void @bit_clear(ptr noundef %10, i64 noundef %14)
  %15 = load ptr, ptr %4, align 8
  %16 = getelementptr inbounds nuw %struct.job_record, ptr %15, i32 0, i32 30
  %17 = load ptr, ptr %16, align 8
  %18 = icmp ne ptr %17, null
  br i1 %18, label %19, label %37

19:                                               ; preds = %2
  %20 = load ptr, ptr %4, align 8
  %21 = getelementptr inbounds nuw %struct.job_record, ptr %20, i32 0, i32 30
  %22 = load ptr, ptr %21, align 8
  %23 = getelementptr inbounds nuw %struct.job_details_t, ptr %22, i32 0, i32 67
  %24 = load i8, ptr %23, align 2
  %25 = zext i8 %24 to i32
  %26 = icmp eq i32 %25, 0
  br i1 %26, label %27, label %37

27:                                               ; preds = %19
  %28 = load ptr, ptr @share_node_bitmap, align 8
  %29 = load ptr, ptr %3, align 8
  %30 = getelementptr inbounds nuw %struct.node_record, ptr %29, i32 0, i32 29
  %31 = load i32, ptr %30, align 8
  %32 = zext i32 %31 to i64
  call void @bit_clear(ptr noundef %28, i64 noundef %32)
  %33 = load ptr, ptr %3, align 8
  %34 = getelementptr inbounds nuw %struct.node_record, ptr %33, i32 0, i32 39
  %35 = load i16, ptr %34, align 4
  %36 = add i16 %35, 1
  store i16 %36, ptr %34, align 4
  br label %37

37:                                               ; preds = %27, %19, %2
  %38 = load ptr, ptr %4, align 8
  %39 = getelementptr inbounds nuw %struct.job_record, ptr %38, i32 0, i32 30
  %40 = load ptr, ptr %39, align 8
  %41 = icmp ne ptr %40, null
  br i1 %41, label %42, label %51

42:                                               ; preds = %37
  %43 = load ptr, ptr %4, align 8
  %44 = getelementptr inbounds nuw %struct.job_record, ptr %43, i32 0, i32 30
  %45 = load ptr, ptr %44, align 8
  %46 = getelementptr inbounds nuw %struct.job_details_t, ptr %45, i32 0, i32 77
  %47 = load i8, ptr %46, align 8
  %48 = zext i8 %47 to i32
  %49 = and i32 %48, 2
  %50 = icmp ne i32 %49, 0
  br i1 %50, label %65, label %51

51:                                               ; preds = %42, %37
  %52 = load ptr, ptr %4, align 8
  %53 = getelementptr inbounds nuw %struct.job_record, ptr %52, i32 0, i32 89
  %54 = load ptr, ptr %53, align 8
  %55 = icmp ne ptr %54, null
  br i1 %55, label %56, label %75

56:                                               ; preds = %51
  %57 = load ptr, ptr %4, align 8
  %58 = getelementptr inbounds nuw %struct.job_record, ptr %57, i32 0, i32 89
  %59 = load ptr, ptr %58, align 8
  %60 = getelementptr inbounds nuw %struct.part_record, ptr %59, i32 0, i32 21
  %61 = load i32, ptr %60, align 8
  %62 = zext i32 %61 to i64
  %63 = and i64 %62, 64
  %64 = icmp ne i64 %63, 0
  br i1 %64, label %65, label %75

65:                                               ; preds = %56, %42
  %66 = load ptr, ptr %3, align 8
  %67 = getelementptr inbounds nuw %struct.node_record, ptr %66, i32 0, i32 48
  %68 = load i16, ptr %67, align 4
  %69 = add i16 %68, 1
  store i16 %69, ptr %67, align 4
  %70 = load ptr, ptr %4, align 8
  %71 = getelementptr inbounds nuw %struct.job_record, ptr %70, i32 0, i32 150
  %72 = load i32, ptr %71, align 8
  %73 = load ptr, ptr %3, align 8
  %74 = getelementptr inbounds nuw %struct.node_record, ptr %73, i32 0, i32 47
  store i32 %72, ptr %74, align 8
  br label %75

75:                                               ; preds = %65, %56, %51
  %76 = load ptr, ptr %4, align 8
  %77 = call i32 @slurm_mcs_get_select(ptr noundef %76)
  %78 = icmp eq i32 %77, 1
  br i1 %78, label %79, label %88

79:                                               ; preds = %75
  %80 = load ptr, ptr %3, align 8
  %81 = getelementptr inbounds nuw %struct.node_record, ptr %80, i32 0, i32 35
  call void @slurm_xfree(ptr noundef %81)
  %82 = load ptr, ptr %4, align 8
  %83 = getelementptr inbounds nuw %struct.job_record, ptr %82, i32 0, i32 71
  %84 = load ptr, ptr %83, align 8
  %85 = call ptr @xstrdup(ptr noundef %84)
  %86 = load ptr, ptr %3, align 8
  %87 = getelementptr inbounds nuw %struct.node_record, ptr %86, i32 0, i32 35
  store ptr %85, ptr %87, align 8
  br label %88

88:                                               ; preds = %79, %75
  %89 = load ptr, ptr %3, align 8
  %90 = getelementptr inbounds nuw %struct.node_record, ptr %89, i32 0, i32 44
  %91 = load i32, ptr %90, align 8
  %92 = and i32 %91, -16
  store i32 %92, ptr %5, align 4
  %93 = load i32, ptr %5, align 4
  %94 = or i32 3, %93
  %95 = load ptr, ptr %3, align 8
  %96 = getelementptr inbounds nuw %struct.node_record, ptr %95, i32 0, i32 44
  store i32 %94, ptr %96, align 8
  %97 = load ptr, ptr %3, align 8
  %98 = getelementptr inbounds nuw %struct.node_record, ptr %97, i32 0, i32 55
  call void @slurm_xfree(ptr noundef %98)
  %99 = load ptr, ptr %3, align 8
  %100 = getelementptr inbounds nuw %struct.node_record, ptr %99, i32 0, i32 56
  store i64 0, ptr %100, align 8
  %101 = load ptr, ptr %3, align 8
  %102 = getelementptr inbounds nuw %struct.node_record, ptr %101, i32 0, i32 57
  store i32 -2, ptr %102, align 8
  %103 = load ptr, ptr %4, align 8
  %104 = icmp ne ptr %103, null
  br i1 %104, label %105, label %126

105:                                              ; preds = %88
  %106 = load ptr, ptr %4, align 8
  %107 = getelementptr inbounds nuw %struct.job_record, ptr %106, i32 0, i32 89
  %108 = load ptr, ptr %107, align 8
  %109 = icmp ne ptr %108, null
  br i1 %109, label %110, label %126

110:                                              ; preds = %105
  %111 = load ptr, ptr %4, align 8
  %112 = getelementptr inbounds nuw %struct.job_record, ptr %111, i32 0, i32 89
  %113 = load ptr, ptr %112, align 8
  %114 = getelementptr inbounds nuw %struct.part_record, ptr %113, i32 0, i32 21
  %115 = load i32, ptr %114, align 8
  %116 = zext i32 %115 to i64
  %117 = and i64 %116, 128
  %118 = icmp ne i64 %117, 0
  br i1 %118, label %119, label %126

119:                                              ; preds = %110
  %120 = load ptr, ptr %3, align 8
  %121 = getelementptr inbounds nuw %struct.node_record, ptr %120, i32 0, i32 44
  %122 = load i32, ptr %121, align 8
  %123 = zext i32 %122 to i64
  %124 = or i64 %123, 8388608
  %125 = trunc i64 %124 to i32
  store i32 %125, ptr %121, align 8
  br label %126

126:                                              ; preds = %119, %110, %105, %88
  %127 = call i64 @time(ptr noundef null) #10
  store i64 %127, ptr @last_node_update, align 8
  call void @llvm.lifetime.end.p0(i64 4, ptr %5) #10
  ret void
}