; Function Attrs: nounwind uwtable
define dso_local void @make_node_alloc(ptr noundef %0, ptr noundef %1) local_unnamed_addr #0 {
  %3 = getelementptr inbounds nuw i8, ptr %0, i64 432
  %4 = load i16, ptr %3, align 8
  %5 = add i16 %4, 1
  store i16 %5, ptr %3, align 8
  %6 = load ptr, ptr @idle_node_bitmap, align 8
  %7 = getelementptr inbounds nuw i8, ptr %0, i64 208
  %8 = load i32, ptr %7, align 8
  %9 = zext i32 %8 to i64
  tail call void @bit_clear(ptr noundef %6, i64 noundef %9) #15
  %10 = getelementptr inbounds nuw i8, ptr %1, i64 216
  %11 = load ptr, ptr %10, align 8
  %.not = icmp eq ptr %11, null
  br i1 %.not, label %.thread, label %12

12:                                               ; preds = %2
  %13 = getelementptr inbounds nuw i8, ptr %11, i64 414
  %14 = load i8, ptr %13, align 2
  %15 = icmp eq i8 %14, 0
  br i1 %15, label %16, label %.thread39

16:                                               ; preds = %12
  %17 = load ptr, ptr @share_node_bitmap, align 8
  %18 = load i32, ptr %7, align 8
  %19 = zext i32 %18 to i64
  tail call void @bit_clear(ptr noundef %17, i64 noundef %19) #15
  %20 = getelementptr inbounds nuw i8, ptr %0, i64 284
  %21 = load i16, ptr %20, align 4
  %22 = add i16 %21, 1
  store i16 %22, ptr %20, align 4
  %.pr.pre = load ptr, ptr %10, align 8
  %.not30 = icmp eq ptr %.pr.pre, null
  br i1 %.not30, label %.thread, label %.thread39

.thread39:                                        ; preds = %12, %16
  %.pr42 = phi ptr [ %.pr.pre, %16 ], [ %11, %12 ]
  %23 = getelementptr inbounds nuw i8, ptr %.pr42, i64 480
  %24 = load i8, ptr %23, align 8
  %25 = and i8 %24, 2
  %.not31 = icmp eq i8 %25, 0
  br i1 %.not31, label %.thread, label %32

.thread:                                          ; preds = %2, %.thread39, %16
  %26 = getelementptr inbounds nuw i8, ptr %1, i64 672
  %27 = load ptr, ptr %26, align 8
  %.not32 = icmp eq ptr %27, null
  br i1 %.not32, label %39, label %28

28:                                               ; preds = %.thread
  %29 = getelementptr inbounds nuw i8, ptr %27, i64 168
  %30 = load i32, ptr %29, align 8
  %31 = and i32 %30, 64
  %.not33 = icmp eq i32 %31, 0
  br i1 %.not33, label %39, label %32

32:                                               ; preds = %28, %.thread39
  %33 = getelementptr inbounds nuw i8, ptr %0, i64 340
  %34 = load i16, ptr %33, align 4
  %35 = add i16 %34, 1
  store i16 %35, ptr %33, align 4
  %36 = getelementptr inbounds nuw i8, ptr %1, i64 1096
  %37 = load i32, ptr %36, align 8
  %38 = getelementptr inbounds nuw i8, ptr %0, i64 336
  store i32 %37, ptr %38, align 8
  br label %39

39:                                               ; preds = %32, %28, %.thread
  %40 = tail call i32 @slurm_mcs_get_select(ptr noundef nonnull %1) #15
  %41 = icmp eq i32 %40, 1
  br i1 %41, label %42, label %47

42:                                               ; preds = %39
  %43 = getelementptr inbounds nuw i8, ptr %0, i64 256
  tail call void @slurm_xfree(ptr noundef nonnull %43) #15
  %44 = getelementptr inbounds nuw i8, ptr %1, i64 536
  %45 = load ptr, ptr %44, align 8
  %46 = tail call ptr @xstrdup(ptr noundef %45) #15
  store ptr %46, ptr %43, align 8
  br label %47

47:                                               ; preds = %39, %42
  %48 = getelementptr inbounds nuw i8, ptr %0, i64 320
  %49 = load i32, ptr %48, align 8
  %50 = and i32 %49, -16
  %51 = or disjoint i32 %50, 3
  store i32 %51, ptr %48, align 8
  %52 = getelementptr inbounds nuw i8, ptr %0, i64 384
  tail call void @slurm_xfree(ptr noundef nonnull %52) #15
  %53 = getelementptr inbounds nuw i8, ptr %0, i64 392
  store i64 0, ptr %53, align 8
  %54 = getelementptr inbounds nuw i8, ptr %0, i64 400
  store i32 -2, ptr %54, align 8
  %55 = getelementptr inbounds nuw i8, ptr %1, i64 672
  %56 = load ptr, ptr %55, align 8
  %.not35 = icmp eq ptr %56, null
  br i1 %.not35, label %64, label %57

57:                                               ; preds = %47
  %58 = getelementptr inbounds nuw i8, ptr %56, i64 168
  %59 = load i32, ptr %58, align 8
  %60 = and i32 %59, 128
  %.not36 = icmp eq i32 %60, 0
  br i1 %.not36, label %64, label %61

61:                                               ; preds = %57
  %62 = load i32, ptr %48, align 8
  %63 = or i32 %62, 8388608
  store i32 %63, ptr %48, align 8
  br label %64

64:                                               ; preds = %61, %57, %47
  %65 = tail call i64 @time(ptr noundef null) #15
  store i64 %65, ptr @last_node_update, align 8
  ret void
}